target datalayout = "e-m:e-p270:32:32-p271:32:32-p272:64:64-i64:64-i128:128-f80:128-n8:16:32:64-S128"
target triple = "x86_64-pc-linux-gnu"

%"class.std::thread" = type { %"class.std::thread::id" }
%"class.std::thread::id" = type { i64 }

@glad_glReadPixels = external global ptr, align 8

; Function Attrs: inlinehint mustprogress nounwind uwtable
define linkonce_odr dso_local noundef zeroext i1 @_ZSteqNSt6thread2idES0_(i64 %0, i64 %1) #8 comdat {
  %3 = alloca %"class.std::thread::id", align 8
  %4 = alloca %"class.std::thread::id", align 8
  %5 = getelementptr inbounds nuw %"class.std::thread::id", ptr %3, i32 0, i32 0
  store i64 %0, ptr %5, align 8
  %6 = getelementptr inbounds nuw %"class.std::thread::id", ptr %4, i32 0, i32 0
  store i64 %1, ptr %6, align 8
  %7 = getelementptr inbounds nuw %"class.std::thread::id", ptr %3, i32 0, i32 0
  %8 = load i64, ptr %7, align 8, !tbaa !57
  %9 = getelementptr inbounds nuw %"class.std::thread::id", ptr %4, i32 0, i32 0
  %10 = load i64, ptr %9, align 8, !tbaa !57
  %11 = icmp eq i64 %8, %10
  ret i1 %11
}

; Function Attrs: mustprogress nounwind uwtable
define linkonce_odr dso_local void @_ZNSt6thread2idC2Ev(ptr noundef nonnull align 8 dereferenceable(8) %0) unnamed_addr #1 comdat align 2 {
  %2 = alloca ptr, align 8
  store ptr %0, ptr %2, align 8, !tbaa !59
  %3 = load ptr, ptr %2, align 8
  %4 = getelementptr inbounds nuw %"class.std::thread::id", ptr %3, i32 0, i32 0
  store i64 0, ptr %4, align 8, !tbaa !57
  ret void
}

; Function Attrs: alwaysinline mustprogress noreturn nounwind uwtable
define linkonce_odr dso_local void @_ZSt11__terminatev() #12 comdat {
  call void @_ZSt9terminatev() #18
  unreachable
}

; Function Attrs: mustprogress nounwind uwtable
define linkonce_odr dso_local noundef zeroext i1 @_ZNKSt6thread8joinableEv(ptr noundef nonnull align 8 dereferenceable(8) %0) #1 comdat align 2 {
  %2 = alloca ptr, align 8
  %3 = alloca %"class.std::thread::id", align 8
  %4 = alloca %"class.std::thread::id", align 8
  store ptr %0, ptr %2, align 8, !tbaa !30
  %5 = load ptr, ptr %2, align 8
  %6 = getelementptr inbounds nuw %"class.std::thread", ptr %5, i32 0, i32 0
  call void @llvm.memcpy.p0.p0.i64(ptr align 8 %3, ptr align 8 %6, i64 8, i1 false), !tbaa.struct !56
  call void @_ZNSt6thread2idC2Ev(ptr noundef nonnull align 8 dereferenceable(8) %4) #15
  %7 = getelementptr inbounds nuw %"class.std::thread::id", ptr %3, i32 0, i32 0
  %8 = load i64, ptr %7, align 8
  %9 = getelementptr inbounds nuw %"class.std::thread::id", ptr %4, i32 0, i32 0
  %10 = load i64, ptr %9, align 8
  %11 = call noundef zeroext i1 @_ZSteqNSt6thread2idES0_(i64 %8, i64 %10) #15
  %12 = xor i1 %11, true
  ret i1 %12
}

; Function Attrs: mustprogress nounwind uwtable
define linkonce_odr dso_local void @_ZNSt6threadD2Ev(ptr noundef nonnull align 8 dereferenceable(8) %0) unnamed_addr #1 comdat align 2 {
  %2 = alloca ptr, align 8
  store ptr %0, ptr %2, align 8, !tbaa !30
  %3 = load ptr, ptr %2, align 8
  %4 = call noundef zeroext i1 @_ZNKSt6thread8joinableEv(ptr noundef nonnull align 8 dereferenceable(8) %3) #15
  br i1 %4, label %5, label %6

5:                                                ; preds = %1
  call void @_ZSt11__terminatev() #18
  unreachable

6:                                                ; preds = %1
  ret void
}

; Function Attrs: mustprogress uwtable
define dso_local void @_ZN3igl6opengl3stb20render_to_file_asyncENSt7__cxx1112basic_stringIcSt11char_traitsIcESaIcEEEiib(ptr dead_on_unwind noalias writable sret(%"class.std::thread") align 8 %0, ptr noundef %1, i32 noundef %2, i32 noundef %3, i1 noundef zeroext %4) #3 personality ptr @__gxx_personality_v0 {
  %6 = alloca ptr, align 8
  %7 = alloca ptr, align 8
  %8 = alloca i32, align 4
  %9 = alloca i32, align 4
  %10 = alloca i8, align 1
  %11 = alloca ptr, align 8
  %12 = alloca i1, align 1
  %13 = alloca ptr, align 8
  %14 = alloca i32, align 4
  store ptr %0, ptr %6, align 8
  store ptr %1, ptr %7, align 8, !tbaa !15
  store i32 %2, ptr %8, align 4, !tbaa !17
  store i32 %3, ptr %9, align 4, !tbaa !17
  %15 = zext i1 %4 to i8
  store i8 %15, ptr %10, align 1, !tbaa !19
  call void @llvm.lifetime.start.p0(i64 8, ptr %11) #15
  %16 = load i32, ptr %8, align 4, !tbaa !17
  %17 = load i32, ptr %9, align 4, !tbaa !17
  %18 = mul nsw i32 %16, %17
  %19 = sext i32 %18 to i64
  %20 = call noalias noundef nonnull ptr @_Znam(i64 noundef %19) #16
  store ptr %20, ptr %11, align 8, !tbaa !21
  %21 = load ptr, ptr @glad_glReadPixels, align 8, !tbaa !23
  %22 = load i32, ptr %8, align 4, !tbaa !17
  %23 = load i32, ptr %9, align 4, !tbaa !17
  %24 = load ptr, ptr %11, align 8, !tbaa !21
  call void %21(i32 noundef 0, i32 noundef 0, i32 noundef %22, i32 noundef %23, i32 noundef 6408, i32 noundef 5121, ptr noundef %24)
  store i1 false, ptr %12, align 1
  call void @_ZNSt6threadC2IRFbPhiiNSt7__cxx1112basic_stringIcSt11char_traitsIcESaIcEEEbEJRS1_RKiSC_RKS7_RKbEvEEOT_DpOT0_(ptr noundef nonnull align 8 dereferenceable(8) %0, ptr noundef nonnull @_ZL27render_to_file_async_helperPhiiNSt7__cxx1112basic_stringIcSt11char_traitsIcESaIcEEEb, ptr noundef nonnull align 8 dereferenceable(8) %11, ptr noundef nonnull align 4 dereferenceable(4) %8, ptr noundef nonnull align 4 dereferenceable(4) %9, ptr noundef nonnull align 8 dereferenceable(32) %1, ptr noundef nonnull align 1 dereferenceable(1) %10)
  invoke void @_ZNSt6thread6detachEv(ptr noundef nonnull align 8 dereferenceable(8) %0)
          to label %25 unwind label %27

25:                                               ; preds = %5
  store i1 true, ptr %12, align 1
  %26 = load i1, ptr %12, align 1
  br i1 %26, label %32, label %31

27:                                               ; preds = %5
  %28 = landingpad { ptr, i32 }
          cleanup
  %29 = extractvalue { ptr, i32 } %28, 0
  store ptr %29, ptr %13, align 8
  %30 = extractvalue { ptr, i32 } %28, 1
  store i32 %30, ptr %14, align 4
  call void @_ZNSt6threadD2Ev(ptr noundef nonnull align 8 dereferenceable(8) %0) #15
  call void @llvm.lifetime.end.p0(i64 8, ptr %11) #15
  br label %33

31:                                               ; preds = %25
  call void @_ZNSt6threadD2Ev(ptr noundef nonnull align 8 dereferenceable(8) %0) #15
  br label %32

32:                                               ; preds = %31, %25
  call void @llvm.lifetime.end.p0(i64 8, ptr %11) #15
  ret void

33:                                               ; preds = %27
  %34 = load ptr, ptr %13, align 8
  %35 = load i32, ptr %14, align 4
  %36 = insertvalue { ptr, i32 } poison, ptr %34, 0
  %37 = insertvalue { ptr, i32 } %36, i32 %35, 1
  resume { ptr, i32 } %37
}