; Function Attrs: mustprogress uwtable
define dso_local void @_ZN3igl6opengl3stb20render_to_file_asyncENSt7__cxx1112basic_stringIcSt11char_traitsIcESaIcEEEiib(ptr dead_on_unwind noalias writable sret(%"class.std::thread") align 8 %0, ptr noundef %1, i32 noundef %2, i32 noundef %3, i1 noundef zeroext %4) local_unnamed_addr #0 personality ptr @__gxx_personality_v0 {
  %6 = alloca i32, align 4
  %7 = alloca i32, align 4
  %8 = alloca i8, align 1
  %9 = alloca ptr, align 8
  store i32 %2, ptr %6, align 4, !tbaa !4
  store i32 %3, ptr %7, align 4, !tbaa !4
  %10 = zext i1 %4 to i8
  store i8 %10, ptr %8, align 1, !tbaa !8
  call void @llvm.lifetime.start.p0(i64 8, ptr nonnull %9) #11
  %11 = mul nsw i32 %3, %2
  %12 = sext i32 %11 to i64
  %13 = tail call noalias noundef nonnull ptr @_Znam(i64 noundef %12) #12
  store ptr %13, ptr %9, align 8, !tbaa !10
  %14 = load ptr, ptr @glad_glReadPixels, align 8, !tbaa !13
  tail call void %14(i32 noundef 0, i32 noundef 0, i32 noundef %2, i32 noundef %3, i32 noundef 6408, i32 noundef 5121, ptr noundef nonnull %13)
  call void @_ZNSt6threadC2IRFbPhiiNSt7__cxx1112basic_stringIcSt11char_traitsIcESaIcEEEbEJRS1_RKiSC_RKS7_RKbEvEEOT_DpOT0_(ptr noundef nonnull align 8 dereferenceable(8) %0, ptr noundef nonnull @_ZL27render_to_file_async_helperPhiiNSt7__cxx1112basic_stringIcSt11char_traitsIcESaIcEEEb, ptr noundef nonnull align 8 dereferenceable(8) %9, ptr noundef nonnull align 4 dereferenceable(4) %6, ptr noundef nonnull align 4 dereferenceable(4) %7, ptr noundef nonnull align 8 dereferenceable(32) %1, ptr noundef nonnull align 1 dereferenceable(1) %8)
  invoke void @_ZNSt6thread6detachEv(ptr noundef nonnull align 8 dereferenceable(8) %0)
          to label %18 unwind label %15

15:                                               ; preds = %5
  %16 = landingpad { ptr, i32 }
          cleanup
  %.sroa.0.0.copyload.i.i = load i64, ptr %0, align 8, !tbaa !14
  %.not.i = icmp eq i64 %.sroa.0.0.copyload.i.i, 0
  br i1 %.not.i, label %_ZNSt6threadD2Ev.exit, label %17

17:                                               ; preds = %15
  call void @_ZSt9terminatev() #13
  unreachable

_ZNSt6threadD2Ev.exit:                            ; preds = %15
  call void @llvm.lifetime.end.p0(i64 8, ptr nonnull %9) #11
  resume { ptr, i32 } %16

18:                                               ; preds = %5
  call void @llvm.lifetime.end.p0(i64 8, ptr nonnull %9) #11
  ret void
}